target datalayout = "e-m:e-p270:32:32-p271:32:32-p272:64:64-i64:64-i128:128-f80:128-n8:16:32:64-S128"
target triple = "x86_64-pc-linux-gnu"

%struct.H5O_loc_t = type { ptr, i64, i8 }

@H5O_init_g = external global i8, align 1
@H5_libterm_g = external global i8, align 1
@.str = private unnamed_addr constant [104 x i8] c"generated/home/dtcxzyw/WorkSpace/Projects/compilers/llvm-opt-benchmark/bench/hdf5/hdf5/src/H5Omessage.c\00", align 1
@H5E_FUNC_g = external global i64, align 8
@H5E_CANTINIT_g = external global i64, align 8
@.str.1 = private unnamed_addr constant [32 x i8] c"interface initialization failed\00", align 1
@H5E_OHDR_g = external global i64, align 8
@H5E_CANTPIN_g = external global i64, align 8
@.str.2 = private unnamed_addr constant [28 x i8] c"unable to pin object header\00", align 1
@H5E_CANTUNPIN_g = external global i64, align 8
@.str.4 = private unnamed_addr constant [30 x i8] c"unable to unpin object header\00", align 1
@H5O_msg_class_g = external constant [26 x ptr], align 16
@H5E_CANTDELETE_g = external global i64, align 8
@__func__.H5O_msg_remove = private unnamed_addr constant [15 x i8] c"H5O_msg_remove\00", align 1
@.str.23 = private unnamed_addr constant [39 x i8] c"unable to remove object header message\00", align 1

; Function Attrs: nounwind uwtable
define i32 @H5O_msg_remove(ptr noundef %0, i32 noundef %1, i32 noundef %2, i1 noundef zeroext %3) #0 {
  %5 = alloca ptr, align 8
  %6 = alloca i32, align 4
  %7 = alloca i32, align 4
  %8 = alloca i8, align 1
  %9 = alloca ptr, align 8
  %10 = alloca ptr, align 8
  %11 = alloca i32, align 4
  %12 = alloca i8, align 1
  store ptr %0, ptr %5, align 8, !tbaa !3
  store i32 %1, ptr %6, align 4, !tbaa !8
  store i32 %2, ptr %7, align 4, !tbaa !8
  %13 = zext i1 %3 to i8
  store i8 %13, ptr %8, align 1, !tbaa !13
  call void @llvm.lifetime.start.p0(i64 8, ptr %9) #5
  store ptr null, ptr %9, align 8, !tbaa !11
  call void @llvm.lifetime.start.p0(i64 8, ptr %10) #5
  call void @llvm.lifetime.start.p0(i64 4, ptr %11) #5
  store i32 -1, ptr %11, align 4, !tbaa !8
  call void @llvm.lifetime.start.p0(i64 1, ptr %12) #5
  store i8 0, ptr %12, align 1, !tbaa !13
  %14 = load i8, ptr @H5O_init_g, align 1, !tbaa !13, !range !15, !noundef !16
  %15 = trunc i8 %14 to i1
  br i1 %15, label %20, label %16

16:                                               ; preds = %4
  %17 = load i8, ptr @H5_libterm_g, align 1, !tbaa !13, !range !15, !noundef !16
  %18 = trunc i8 %17 to i1
  %19 = xor i1 %18, true
  br label %20

20:                                               ; preds = %16, %4
  %21 = phi i1 [ false, %4 ], [ %19, %16 ]
  %22 = xor i1 %21, true
  %23 = xor i1 %22, true
  %24 = zext i1 %23 to i32
  %25 = sext i32 %24 to i64
  %26 = call i64 @llvm.expect.i64(i64 %25, i64 0)
  %27 = icmp ne i64 %26, 0
  br i1 %27, label %28, label %51

28:                                               ; preds = %20
  store i8 1, ptr @H5O_init_g, align 1, !tbaa !13
  %29 = call i32 @H5O__init_package()
  %30 = icmp slt i32 %29, 0
  br i1 %30, label %31, label %50

31:                                               ; preds = %28
  store i8 0, ptr @H5O_init_g, align 1, !tbaa !13
  br label %32

32:                                               ; preds = %31
  br label %33

33:                                               ; preds = %32
  br label %34

34:                                               ; preds = %33
  %35 = load i64, ptr @H5E_FUNC_g, align 8, !tbaa !17
  %36 = load i64, ptr @H5E_CANTINIT_g, align 8, !tbaa !17
  %37 = call i32 (ptr, ptr, i32, i64, i64, ptr, ...) @H5E_printf_stack(ptr noundef @.str, ptr noundef @__func__.H5O_msg_remove, i32 noundef 862, i64 noundef %35, i64 noundef %36, ptr noundef @.str.1)
  br label %38

38:                                               ; preds = %34
  br label %39

39:                                               ; preds = %38
  store i8 1, ptr %12, align 1, !tbaa !13
  %40 = load i8, ptr %12, align 1, !tbaa !13, !range !15, !noundef !16
  %41 = trunc i8 %40 to i1
  %42 = zext i1 %41 to i8
  store i8 %42, ptr %12, align 1, !tbaa !13
  br label %43

43:                                               ; preds = %39
  br label %44

44:                                               ; preds = %43
  br label %45

45:                                               ; preds = %44
  store i32 -1, ptr %11, align 4, !tbaa !8
  br label %124

46:                                               ; No predecessors!
  br label %47

47:                                               ; preds = %46
  br label %48

48:                                               ; preds = %47
  br label %49

49:                                               ; preds = %48
  br label %50

50:                                               ; preds = %49, %28
  br label %51

51:                                               ; preds = %50, %20
  %52 = load i8, ptr @H5O_init_g, align 1, !tbaa !13, !range !15, !noundef !16
  %53 = trunc i8 %52 to i1
  br i1 %53, label %58, label %54

54:                                               ; preds = %51
  %55 = load i8, ptr @H5_libterm_g, align 1, !tbaa !13, !range !15, !noundef !16
  %56 = trunc i8 %55 to i1
  %57 = xor i1 %56, true
  br label %58

58:                                               ; preds = %54, %51
  %59 = phi i1 [ true, %51 ], [ %57, %54 ]
  %60 = xor i1 %59, true
  %61 = xor i1 %60, true
  %62 = zext i1 %61 to i32
  %63 = sext i32 %62 to i64
  %64 = call i64 @llvm.expect.i64(i64 %63, i64 1)
  %65 = icmp ne i64 %64, 0
  br i1 %65, label %66, label %148

66:                                               ; preds = %58
  %67 = load i32, ptr %6, align 4, !tbaa !8
  %68 = zext i32 %67 to i64
  %69 = getelementptr inbounds nuw [26 x ptr], ptr @H5O_msg_class_g, i64 0, i64 %68
  %70 = load ptr, ptr %69, align 8, !tbaa !23
  store ptr %70, ptr %10, align 8, !tbaa !23
  %71 = load ptr, ptr %5, align 8, !tbaa !3
  %72 = call ptr @H5O_pin(ptr noundef %71)
  store ptr %72, ptr %9, align 8, !tbaa !11
  %73 = icmp eq ptr null, %72
  br i1 %73, label %74, label %93

74:                                               ; preds = %66
  br label %75

75:                                               ; preds = %74
  br label %76

76:                                               ; preds = %75
  br label %77

77:                                               ; preds = %76
  %78 = load i64, ptr @H5E_OHDR_g, align 8, !tbaa !17
  %79 = load i64, ptr @H5E_CANTPIN_g, align 8, !tbaa !17
  %80 = call i32 (ptr, ptr, i32, i64, i64, ptr, ...) @H5E_printf_stack(ptr noundef @.str, ptr noundef @__func__.H5O_msg_remove, i32 noundef 875, i64 noundef %78, i64 noundef %79, ptr noundef @.str.2)
  br label %81

81:                                               ; preds = %77
  br label %82

82:                                               ; preds = %81
  store i8 1, ptr %12, align 1, !tbaa !13
  %83 = load i8, ptr %12, align 1, !tbaa !13, !range !15, !noundef !16
  %84 = trunc i8 %83 to i1
  %85 = zext i1 %84 to i8
  store i8 %85, ptr %12, align 1, !tbaa !13
  br label %86

86:                                               ; preds = %82
  br label %87

87:                                               ; preds = %86
  br label %88

88:                                               ; preds = %87
  store i32 -1, ptr %11, align 4, !tbaa !8
  br label %124

89:                                               ; No predecessors!
  br label %90

90:                                               ; preds = %89
  br label %91

91:                                               ; preds = %90
  br label %92

92:                                               ; preds = %91
  br label %93

93:                                               ; preds = %92, %66
  %94 = load ptr, ptr %5, align 8, !tbaa !3
  %95 = getelementptr inbounds nuw %struct.H5O_loc_t, ptr %94, i32 0, i32 0
  %96 = load ptr, ptr %95, align 8, !tbaa !19
  %97 = load ptr, ptr %9, align 8, !tbaa !11
  %98 = load ptr, ptr %10, align 8, !tbaa !23
  %99 = load i32, ptr %7, align 4, !tbaa !8
  %100 = load i8, ptr %8, align 1, !tbaa !13, !range !15, !noundef !16
  %101 = trunc i8 %100 to i1
  %102 = call i32 @H5O__msg_remove_real(ptr noundef %96, ptr noundef %97, ptr noundef %98, i32 noundef %99, ptr noundef null, ptr noundef null, i1 noundef zeroext %101)
  store i32 %102, ptr %11, align 4, !tbaa !8
  %103 = icmp slt i32 %102, 0
  br i1 %103, label %104, label %123

104:                                              ; preds = %93
  br label %105

105:                                              ; preds = %104
  br label %106

106:                                              ; preds = %105
  br label %107

107:                                              ; preds = %106
  %108 = load i64, ptr @H5E_OHDR_g, align 8, !tbaa !17
  %109 = load i64, ptr @H5E_CANTDELETE_g, align 8, !tbaa !17
  %110 = call i32 (ptr, ptr, i32, i64, i64, ptr, ...) @H5E_printf_stack(ptr noundef @.str, ptr noundef @__func__.H5O_msg_remove, i32 noundef 879, i64 noundef %108, i64 noundef %109, ptr noundef @.str.23)
  br label %111

111:                                              ; preds = %107
  br label %112

112:                                              ; preds = %111
  store i8 1, ptr %12, align 1, !tbaa !13
  %113 = load i8, ptr %12, align 1, !tbaa !13, !range !15, !noundef !16
  %114 = trunc i8 %113 to i1
  %115 = zext i1 %114 to i8
  store i8 %115, ptr %12, align 1, !tbaa !13
  br label %116

116:                                              ; preds = %112
  br label %117

117:                                              ; preds = %116
  br label %118

118:                                              ; preds = %117
  store i32 -1, ptr %11, align 4, !tbaa !8
  br label %124

119:                                              ; No predecessors!
  br label %120

120:                                              ; preds = %119
  br label %121

121:                                              ; preds = %120
  br label %122

122:                                              ; preds = %121
  br label %123

123:                                              ; preds = %122, %93
  br label %124

124:                                              ; preds = %123, %118, %88, %45
  %125 = load ptr, ptr %9, align 8, !tbaa !11
  %126 = icmp ne ptr %125, null
  br i1 %126, label %127, label %147

127:                                              ; preds = %124
  %128 = load ptr, ptr %9, align 8, !tbaa !11
  %129 = call i32 @H5O_unpin(ptr noundef %128)
  %130 = icmp slt i32 %129, 0
  br i1 %130, label %131, label %147

131:                                              ; preds = %127
  br label %132

132:                                              ; preds = %131
  br label %133

133:                                              ; preds = %132
  br label %134

134:                                              ; preds = %133
  %135 = load i64, ptr @H5E_OHDR_g, align 8, !tbaa !17
  %136 = load i64, ptr @H5E_CANTUNPIN_g, align 8, !tbaa !17
  %137 = call i32 (ptr, ptr, i32, i64, i64, ptr, ...) @H5E_printf_stack(ptr noundef @.str, ptr noundef @__func__.H5O_msg_remove, i32 noundef 883, i64 noundef %135, i64 noundef %136, ptr noundef @.str.4)
  br label %138

138:                                              ; preds = %134
  br label %139

139:                                              ; preds = %138
  store i8 1, ptr %12, align 1, !tbaa !13
  %140 = load i8, ptr %12, align 1, !tbaa !13, !range !15, !noundef !16
  %141 = trunc i8 %140 to i1
  %142 = zext i1 %141 to i8
  store i8 %142, ptr %12, align 1, !tbaa !13
  br label %143

143:                                              ; preds = %139
  br label %144

144:                                              ; preds = %143
  store i32 -1, ptr %11, align 4, !tbaa !8
  br label %145

145:                                              ; preds = %144
  br label %146

146:                                              ; preds = %145
  br label %147

147:                                              ; preds = %146, %127, %124
  br label %148

148:                                              ; preds = %147, %58
  %149 = load i32, ptr %11, align 4, !tbaa !8
  call void @llvm.lifetime.end.p0(i64 1, ptr %12) #5
  call void @llvm.lifetime.end.p0(i64 4, ptr %11) #5
  call void @llvm.lifetime.end.p0(i64 8, ptr %10) #5
  call void @llvm.lifetime.end.p0(i64 8, ptr %9) #5
  ret i32 %149
}