; Function Attrs: nounwind uwtable
define range(i32 -1, 1) i32 @H5O_msg_remove(ptr noundef %0, i32 noundef %1, i32 noundef %2, i1 noundef zeroext %3) local_unnamed_addr #0 {
  %5 = load i8, ptr @H5O_init_g, align 1, !tbaa !3, !range !7, !noundef !8
  %6 = trunc nuw i8 %5 to i1
  %7 = load i8, ptr @H5_libterm_g, align 1, !range !7
  %8 = trunc nuw i8 %7 to i1
  %9 = select i1 %6, i1 true, i1 %8
  br i1 %9, label %17, label %10, !prof !9

10:                                               ; preds = %4
  store i8 1, ptr @H5O_init_g, align 1, !tbaa !3
  %11 = tail call i32 @H5O__init_package() #7
  %12 = icmp slt i32 %11, 0
  br i1 %12, label %13, label %._crit_edge

._crit_edge:                                      ; preds = %10
  %.pre = load i8, ptr @H5O_init_g, align 1, !tbaa !3, !range !7
  %.pre20 = load i8, ptr @H5_libterm_g, align 1, !range !7
  %.pre21 = trunc nuw i8 %.pre to i1
  %.pre22 = trunc nuw i8 %.pre20 to i1
  br label %17

13:                                               ; preds = %10
  store i8 0, ptr @H5O_init_g, align 1, !tbaa !3
  %14 = load i64, ptr @H5E_FUNC_g, align 8, !tbaa !10
  %15 = load i64, ptr @H5E_CANTINIT_g, align 8, !tbaa !10
  %16 = tail call i32 (ptr, ptr, i32, i64, i64, ptr, ...) @H5E_printf_stack(ptr noundef nonnull @.str, ptr noundef nonnull @__func__.H5O_msg_remove, i32 noundef 862, i64 noundef %14, i64 noundef %15, ptr noundef nonnull @.str.1) #7
  br label %.thread

17:                                               ; preds = %._crit_edge, %4
  %.pre-phi23 = phi i1 [ %.pre22, %._crit_edge ], [ %8, %4 ]
  %.pre-phi = phi i1 [ %.pre21, %._crit_edge ], [ %6, %4 ]
  %18 = xor i1 %.pre-phi23, true
  %19 = select i1 %.pre-phi, i1 true, i1 %18
  br i1 %19, label %20, label %.thread, !prof !9

20:                                               ; preds = %17
  %21 = zext i32 %1 to i64
  %22 = getelementptr inbounds nuw [26 x ptr], ptr @H5O_msg_class_g, i64 0, i64 %21
  %23 = load ptr, ptr %22, align 8, !tbaa !16
  %24 = tail call ptr @H5O_pin(ptr noundef %0) #7
  %25 = icmp eq ptr %24, null
  br i1 %25, label %26, label %30

26:                                               ; preds = %20
  %27 = load i64, ptr @H5E_OHDR_g, align 8, !tbaa !10
  %28 = load i64, ptr @H5E_CANTPIN_g, align 8, !tbaa !10
  %29 = tail call i32 (ptr, ptr, i32, i64, i64, ptr, ...) @H5E_printf_stack(ptr noundef nonnull @.str, ptr noundef nonnull @__func__.H5O_msg_remove, i32 noundef 875, i64 noundef %27, i64 noundef %28, ptr noundef nonnull @.str.2) #7
  br label %.thread

30:                                               ; preds = %20
  %31 = load ptr, ptr %0, align 8, !tbaa !12
  %32 = tail call i32 @H5O__msg_remove_real(ptr noundef %31, ptr noundef nonnull %24, ptr noundef %23, i32 noundef %2, ptr noundef null, ptr noundef null, i1 noundef zeroext %3)
  %33 = icmp slt i32 %32, 0
  br i1 %33, label %34, label %38

34:                                               ; preds = %30
  %35 = load i64, ptr @H5E_OHDR_g, align 8, !tbaa !10
  %36 = load i64, ptr @H5E_CANTDELETE_g, align 8, !tbaa !10
  %37 = tail call i32 (ptr, ptr, i32, i64, i64, ptr, ...) @H5E_printf_stack(ptr noundef nonnull @.str, ptr noundef nonnull @__func__.H5O_msg_remove, i32 noundef 879, i64 noundef %35, i64 noundef %36, ptr noundef nonnull @.str.23) #7
  br label %38

38:                                               ; preds = %34, %30
  %.0 = phi i32 [ -1, %34 ], [ 0, %30 ]
  %39 = tail call i32 @H5O_unpin(ptr noundef nonnull %24) #7
  %40 = icmp slt i32 %39, 0
  br i1 %40, label %41, label %.thread

41:                                               ; preds = %38
  %42 = load i64, ptr @H5E_OHDR_g, align 8, !tbaa !10
  %43 = load i64, ptr @H5E_CANTUNPIN_g, align 8, !tbaa !10
  %44 = tail call i32 (ptr, ptr, i32, i64, i64, ptr, ...) @H5E_printf_stack(ptr noundef nonnull @.str, ptr noundef nonnull @__func__.H5O_msg_remove, i32 noundef 883, i64 noundef %42, i64 noundef %43, ptr noundef nonnull @.str.4) #7
  br label %.thread

.thread:                                          ; preds = %26, %13, %38, %41, %17
  %.1 = phi i32 [ -1, %41 ], [ %.0, %38 ], [ -1, %17 ], [ -1, %13 ], [ -1, %26 ]
  ret i32 %.1
}